target datalayout = "e-m:e-p270:32:32-p271:32:32-p272:64:64-i64:64-i128:128-f80:128-n8:16:32:64-S128"
target triple = "x86_64-pc-linux-gnu"

%struct.moveGroupType = type { i32, [7 x i32], [7 x i32], [7 x i32], [7 x i32] }
%class.Moves = type { i32, i32, i32, i32, i32, i32, i32, i32, i32, [13 x %"struct.Moves::trackType"], ptr, [13 x [4 x %struct.movePlyType]], ptr, [13 x [4 x i32]], [13 x %"class.std::__cxx11::basic_string"], [13 x [4 x %"struct.Moves::moveStatType"]], [13 x [4 x %"struct.Moves::moveStatType"]], [13 x [4 x %"struct.Moves::moveStatsType"]], [13 x [4 x %"struct.Moves::moveStatsType"]], %"struct.Moves::moveStatsType", %"struct.Moves::moveStatsType", [16 x { i64, i64 }] }
%"struct.Moves::trackType" = type { i32, i32, [4 x i32], [4 x i32], %struct.trickDataType, [4 x %struct.extCard], [4 x i32], [4 x [4 x i32]], [4 x i32] }
%struct.trickDataType = type { [4 x i32], i32, i32, i32, i32, i32 }
%struct.extCard = type { i32, i32, i32 }
%struct.movePlyType = type { [14 x %struct.moveType], i32, i32 }
%struct.moveType = type { i32, i32, i32, i32 }
%"class.std::__cxx11::basic_string" = type { %"struct.std::__cxx11::basic_string<char>::_Alloc_hider", i64, %union.anon }
%"struct.std::__cxx11::basic_string<char>::_Alloc_hider" = type { ptr }
%union.anon = type { i64, [8 x i8] }
%"struct.Moves::moveStatType" = type { i32, i32, i32, i32 }
%"struct.Moves::moveStatsType" = type { i32, [13 x %"struct.Moves::moveStatType"] }
%struct.pos = type { [4 x [4 x i16]], [4 x i16], [4 x [4 x i8]], [4 x i32], [50 x [4 x i16]], [50 x i32], [50 x %struct.moveType], i32, i32, [4 x %struct.highCardType], [4 x %struct.highCardType] }
%struct.highCardType = type { i32, i32 }

@groupData = external global [8192 x %struct.moveGroupType], align 16

; Function Attrs: mustprogress uwtable
define noundef i32 @_ZN5Moves8MoveGen0EiRK3posRK8moveTypeS5_PK12relRanksType(ptr noundef nonnull align 8 dereferenceable(39992) %0, i32 noundef %1, ptr noundef nonnull align 4 dereferenceable(1544) %2, ptr noundef nonnull align 4 dereferenceable(16) %3, ptr noundef nonnull align 4 dereferenceable(16) %4, ptr noundef %5) #4 align 2 {
  %7 = alloca ptr, align 8
  %8 = alloca i32, align 4
  %9 = alloca ptr, align 8
  %10 = alloca ptr, align 8
  %11 = alloca ptr, align 8
  %12 = alloca ptr, align 8
  %13 = alloca ptr, align 8
  %14 = alloca i32, align 4
  %15 = alloca i32, align 4
  %16 = alloca i32, align 4
  %17 = alloca i32, align 4
  %18 = alloca ptr, align 8
  %19 = alloca i32, align 4
  %20 = alloca i8, align 1
  %21 = alloca i16, align 2
  store ptr %0, ptr %7, align 8
  store i32 %1, ptr %8, align 4
  store ptr %2, ptr %9, align 8
  store ptr %3, ptr %10, align 8
  store ptr %4, ptr %11, align 8
  store ptr %5, ptr %12, align 8
  %22 = load ptr, ptr %7, align 8
  %23 = getelementptr inbounds nuw %class.Moves, ptr %22, i32 0, i32 9
  %24 = load i32, ptr %8, align 4
  %25 = sext i32 %24 to i64
  %26 = getelementptr inbounds [13 x %"struct.Moves::trackType"], ptr %23, i64 0, i64 %25
  %27 = getelementptr inbounds nuw %class.Moves, ptr %22, i32 0, i32 10
  store ptr %26, ptr %27, align 8
  %28 = getelementptr inbounds nuw %class.Moves, ptr %22, i32 0, i32 10
  %29 = load ptr, ptr %28, align 8
  %30 = getelementptr inbounds nuw %"struct.Moves::trackType", ptr %29, i32 0, i32 0
  %31 = load i32, ptr %30, align 4
  %32 = getelementptr inbounds nuw %class.Moves, ptr %22, i32 0, i32 0
  store i32 %31, ptr %32, align 8
  %33 = getelementptr inbounds nuw %class.Moves, ptr %22, i32 0, i32 0
  %34 = load i32, ptr %33, align 8
  %35 = getelementptr inbounds nuw %class.Moves, ptr %22, i32 0, i32 2
  store i32 %34, ptr %35, align 8
  %36 = load i32, ptr %8, align 4
  %37 = getelementptr inbounds nuw %class.Moves, ptr %22, i32 0, i32 4
  store i32 %36, ptr %37, align 8
  %38 = getelementptr inbounds nuw %class.Moves, ptr %22, i32 0, i32 11
  %39 = load i32, ptr %8, align 4
  %40 = sext i32 %39 to i64
  %41 = getelementptr inbounds [13 x [4 x %struct.movePlyType]], ptr %38, i64 0, i64 %40
  %42 = getelementptr inbounds [4 x %struct.movePlyType], ptr %41, i64 0, i64 0
  store ptr %42, ptr %18, align 8
  %43 = load ptr, ptr %18, align 8
  %44 = getelementptr inbounds nuw %struct.movePlyType, ptr %43, i32 0, i32 0
  %45 = getelementptr inbounds [14 x %struct.moveType], ptr %44, i64 0, i64 0
  %46 = getelementptr inbounds nuw %class.Moves, ptr %22, i32 0, i32 12
  store ptr %45, ptr %46, align 8
  store i32 0, ptr %19, align 4
  br label %47

47:                                               ; preds = %58, %6
  %48 = load i32, ptr %19, align 4
  %49 = icmp slt i32 %48, 4
  br i1 %49, label %50, label %61

50:                                               ; preds = %47
  %51 = getelementptr inbounds nuw %class.Moves, ptr %22, i32 0, i32 10
  %52 = load ptr, ptr %51, align 8
  %53 = getelementptr inbounds nuw %"struct.Moves::trackType", ptr %52, i32 0, i32 7
  %54 = getelementptr inbounds [4 x [4 x i32]], ptr %53, i64 0, i64 0
  %55 = load i32, ptr %19, align 4
  %56 = sext i32 %55 to i64
  %57 = getelementptr inbounds [4 x i32], ptr %54, i64 0, i64 %56
  store i32 0, ptr %57, align 4
  br label %58

58:                                               ; preds = %50
  %59 = load i32, ptr %19, align 4
  %60 = add nsw i32 %59, 1
  store i32 %60, ptr %19, align 4
  br label %47, !llvm.loop !56

61:                                               ; preds = %47
  %62 = getelementptr inbounds nuw %class.Moves, ptr %22, i32 0, i32 7
  store i32 0, ptr %62, align 4
  %63 = getelementptr inbounds nuw %class.Moves, ptr %22, i32 0, i32 5
  %64 = load i32, ptr %63, align 4
  %65 = icmp ne i32 %64, 4
  br i1 %65, label %66, label %76

66:                                               ; preds = %61
  %67 = load ptr, ptr %9, align 8
  %68 = getelementptr inbounds nuw %struct.pos, ptr %67, i32 0, i32 9
  %69 = getelementptr inbounds nuw %class.Moves, ptr %22, i32 0, i32 5
  %70 = load i32, ptr %69, align 4
  %71 = sext i32 %70 to i64
  %72 = getelementptr inbounds [4 x %struct.highCardType], ptr %68, i64 0, i64 %71
  %73 = getelementptr inbounds nuw %struct.highCardType, ptr %72, i32 0, i32 0
  %74 = load i32, ptr %73, align 4
  %75 = icmp ne i32 %74, 0
  br label %76

76:                                               ; preds = %66, %61
  %77 = phi i1 [ false, %61 ], [ %75, %66 ]
  %78 = zext i1 %77 to i8
  store i8 %78, ptr %20, align 1
  %79 = getelementptr inbounds nuw %class.Moves, ptr %22, i32 0, i32 6
  store i32 0, ptr %79, align 8
  br label %80

80:                                               ; preds = %210, %76
  %81 = getelementptr inbounds nuw %class.Moves, ptr %22, i32 0, i32 6
  %82 = load i32, ptr %81, align 8
  %83 = icmp slt i32 %82, 4
  br i1 %83, label %84, label %214

84:                                               ; preds = %80
  %85 = load ptr, ptr %9, align 8
  %86 = getelementptr inbounds nuw %struct.pos, ptr %85, i32 0, i32 0
  %87 = getelementptr inbounds nuw %class.Moves, ptr %22, i32 0, i32 0
  %88 = load i32, ptr %87, align 8
  %89 = sext i32 %88 to i64
  %90 = getelementptr inbounds [4 x [4 x i16]], ptr %86, i64 0, i64 %89
  %91 = getelementptr inbounds nuw %class.Moves, ptr %22, i32 0, i32 6
  %92 = load i32, ptr %91, align 8
  %93 = sext i32 %92 to i64
  %94 = getelementptr inbounds [4 x i16], ptr %90, i64 0, i64 %93
  %95 = load i16, ptr %94, align 2
  store i16 %95, ptr %21, align 2
  %96 = load i16, ptr %21, align 2
  %97 = zext i16 %96 to i32
  %98 = icmp eq i32 %97, 0
  br i1 %98, label %99, label %100

99:                                               ; preds = %84
  br label %210

100:                                              ; preds = %84
  %101 = getelementptr inbounds nuw %class.Moves, ptr %22, i32 0, i32 7
  %102 = load i32, ptr %101, align 4
  %103 = getelementptr inbounds nuw %class.Moves, ptr %22, i32 0, i32 8
  store i32 %102, ptr %103, align 8
  %104 = load i16, ptr %21, align 2
  %105 = zext i16 %104 to i64
  %106 = getelementptr inbounds [8192 x %struct.moveGroupType], ptr @groupData, i64 0, i64 %105
  store ptr %106, ptr %13, align 8
  %107 = load ptr, ptr %13, align 8
  %108 = getelementptr inbounds nuw %struct.moveGroupType, ptr %107, i32 0, i32 0
  %109 = load i32, ptr %108, align 4
  store i32 %109, ptr %15, align 4
  %110 = getelementptr inbounds nuw %class.Moves, ptr %22, i32 0, i32 10
  %111 = load ptr, ptr %110, align 8
  %112 = getelementptr inbounds nuw %"struct.Moves::trackType", ptr %111, i32 0, i32 8
  %113 = getelementptr inbounds nuw %class.Moves, ptr %22, i32 0, i32 6
  %114 = load i32, ptr %113, align 8
  %115 = sext i32 %114 to i64
  %116 = getelementptr inbounds [4 x i32], ptr %112, i64 0, i64 %115
  %117 = load i32, ptr %116, align 4
  store i32 %117, ptr %14, align 4
  br label %118

118:                                              ; preds = %165, %100
  %119 = load i32, ptr %15, align 4
  %120 = icmp sge i32 %119, 0
  br i1 %120, label %121, label %196

121:                                              ; preds = %118
  %122 = load ptr, ptr %13, align 8
  %123 = getelementptr inbounds nuw %struct.moveGroupType, ptr %122, i32 0, i32 1
  %124 = load i32, ptr %15, align 4
  %125 = sext i32 %124 to i64
  %126 = getelementptr inbounds [7 x i32], ptr %123, i64 0, i64 %125
  %127 = load i32, ptr %126, align 4
  store i32 %127, ptr %16, align 4
  %128 = load ptr, ptr %13, align 8
  %129 = getelementptr inbounds nuw %struct.moveGroupType, ptr %128, i32 0, i32 2
  %130 = load i32, ptr %15, align 4
  %131 = sext i32 %130 to i64
  %132 = getelementptr inbounds [7 x i32], ptr %129, i64 0, i64 %131
  %133 = load i32, ptr %132, align 4
  store i32 %133, ptr %17, align 4
  br label %134

134:                                              ; preds = %155, %121
  %135 = load i32, ptr %15, align 4
  %136 = icmp sge i32 %135, 1
  br i1 %136, label %137, label %153

137:                                              ; preds = %134
  %138 = load ptr, ptr %13, align 8
  %139 = getelementptr inbounds nuw %struct.moveGroupType, ptr %138, i32 0, i32 4
  %140 = load i32, ptr %15, align 4
  %141 = sext i32 %140 to i64
  %142 = getelementptr inbounds [7 x i32], ptr %139, i64 0, i64 %141
  %143 = load i32, ptr %142, align 4
  %144 = load i32, ptr %14, align 4
  %145 = and i32 %143, %144
  %146 = load ptr, ptr %13, align 8
  %147 = getelementptr inbounds nuw %struct.moveGroupType, ptr %146, i32 0, i32 4
  %148 = load i32, ptr %15, align 4
  %149 = sext i32 %148 to i64
  %150 = getelementptr inbounds [7 x i32], ptr %147, i64 0, i64 %149
  %151 = load i32, ptr %150, align 4
  %152 = icmp eq i32 %145, %151
  br label %153

153:                                              ; preds = %137, %134
  %154 = phi i1 [ false, %134 ], [ %152, %137 ]
  br i1 %154, label %155, label %165

155:                                              ; preds = %153
  %156 = load ptr, ptr %13, align 8
  %157 = getelementptr inbounds nuw %struct.moveGroupType, ptr %156, i32 0, i32 3
  %158 = load i32, ptr %15, align 4
  %159 = add nsw i32 %158, -1
  store i32 %159, ptr %15, align 4
  %160 = sext i32 %159 to i64
  %161 = getelementptr inbounds [7 x i32], ptr %157, i64 0, i64 %160
  %162 = load i32, ptr %161, align 4
  %163 = load i32, ptr %17, align 4
  %164 = or i32 %163, %162
  store i32 %164, ptr %17, align 4
  br label %134, !llvm.loop !57

165:                                              ; preds = %153
  %166 = load i32, ptr %17, align 4
  %167 = getelementptr inbounds nuw %class.Moves, ptr %22, i32 0, i32 12
  %168 = load ptr, ptr %167, align 8
  %169 = getelementptr inbounds nuw %class.Moves, ptr %22, i32 0, i32 7
  %170 = load i32, ptr %169, align 4
  %171 = sext i32 %170 to i64
  %172 = getelementptr inbounds %struct.moveType, ptr %168, i64 %171
  %173 = getelementptr inbounds nuw %struct.moveType, ptr %172, i32 0, i32 2
  store i32 %166, ptr %173, align 4
  %174 = getelementptr inbounds nuw %class.Moves, ptr %22, i32 0, i32 6
  %175 = load i32, ptr %174, align 8
  %176 = getelementptr inbounds nuw %class.Moves, ptr %22, i32 0, i32 12
  %177 = load ptr, ptr %176, align 8
  %178 = getelementptr inbounds nuw %class.Moves, ptr %22, i32 0, i32 7
  %179 = load i32, ptr %178, align 4
  %180 = sext i32 %179 to i64
  %181 = getelementptr inbounds %struct.moveType, ptr %177, i64 %180
  %182 = getelementptr inbounds nuw %struct.moveType, ptr %181, i32 0, i32 0
  store i32 %175, ptr %182, align 4
  %183 = load i32, ptr %16, align 4
  %184 = getelementptr inbounds nuw %class.Moves, ptr %22, i32 0, i32 12
  %185 = load ptr, ptr %184, align 8
  %186 = getelementptr inbounds nuw %class.Moves, ptr %22, i32 0, i32 7
  %187 = load i32, ptr %186, align 4
  %188 = sext i32 %187 to i64
  %189 = getelementptr inbounds %struct.moveType, ptr %185, i64 %188
  %190 = getelementptr inbounds nuw %struct.moveType, ptr %189, i32 0, i32 1
  store i32 %183, ptr %190, align 4
  %191 = getelementptr inbounds nuw %class.Moves, ptr %22, i32 0, i32 7
  %192 = load i32, ptr %191, align 4
  %193 = add nsw i32 %192, 1
  store i32 %193, ptr %191, align 4
  %194 = load i32, ptr %15, align 4
  %195 = add nsw i32 %194, -1
  store i32 %195, ptr %15, align 4
  br label %118, !llvm.loop !58

196:                                              ; preds = %118
  %197 = load i8, ptr %20, align 1
  %198 = trunc i8 %197 to i1
  br i1 %198, label %199, label %204

199:                                              ; preds = %196
  %200 = load ptr, ptr %9, align 8
  %201 = load ptr, ptr %10, align 8
  %202 = load ptr, ptr %11, align 8
  %203 = load ptr, ptr %12, align 8
  call void @_ZN5Moves17WeightAllocTrump0ERK3posRK8moveTypeS5_PK12relRanksType(ptr noundef nonnull align 8 dereferenceable(39992) %22, ptr noundef nonnull align 4 dereferenceable(1544) %200, ptr noundef nonnull align 4 dereferenceable(16) %201, ptr noundef nonnull align 4 dereferenceable(16) %202, ptr noundef %203)
  br label %209

204:                                              ; preds = %196
  %205 = load ptr, ptr %9, align 8
  %206 = load ptr, ptr %10, align 8
  %207 = load ptr, ptr %11, align 8
  %208 = load ptr, ptr %12, align 8
  call void @_ZN5Moves14WeightAllocNT0ERK3posRK8moveTypeS5_PK12relRanksType(ptr noundef nonnull align 8 dereferenceable(39992) %22, ptr noundef nonnull align 4 dereferenceable(1544) %205, ptr noundef nonnull align 4 dereferenceable(16) %206, ptr noundef nonnull align 4 dereferenceable(16) %207, ptr noundef %208)
  br label %209

209:                                              ; preds = %204, %199
  br label %210

210:                                              ; preds = %209, %99
  %211 = getelementptr inbounds nuw %class.Moves, ptr %22, i32 0, i32 6
  %212 = load i32, ptr %211, align 8
  %213 = add nsw i32 %212, 1
  store i32 %213, ptr %211, align 8
  br label %80, !llvm.loop !59

214:                                              ; preds = %80
  %215 = load ptr, ptr %18, align 8
  %216 = getelementptr inbounds nuw %struct.movePlyType, ptr %215, i32 0, i32 1
  store i32 0, ptr %216, align 4
  %217 = getelementptr inbounds nuw %class.Moves, ptr %22, i32 0, i32 7
  %218 = load i32, ptr %217, align 4
  %219 = sub nsw i32 %218, 1
  %220 = load ptr, ptr %18, align 8
  %221 = getelementptr inbounds nuw %struct.movePlyType, ptr %220, i32 0, i32 2
  store i32 %219, ptr %221, align 4
  %222 = getelementptr inbounds nuw %class.Moves, ptr %22, i32 0, i32 7
  %223 = load i32, ptr %222, align 4
  %224 = icmp ne i32 %223, 1
  br i1 %224, label %225, label %226

225:                                              ; preds = %214
  call void @_ZN5Moves9MergeSortEv(ptr noundef nonnull align 8 dereferenceable(39992) %22)
  br label %226

226:                                              ; preds = %225, %214
  %227 = getelementptr inbounds nuw %class.Moves, ptr %22, i32 0, i32 7
  %228 = load i32, ptr %227, align 4
  ret i32 %228
}