; Function Attrs: mustprogress nofree norecurse nosync nounwind memory(readwrite, inaccessiblemem: none) uwtable
define noundef i32 @_ZN5Moves8MoveGen0EiRK3posRK8moveTypeS5_PK12relRanksType(ptr noundef nonnull align 8 dereferenceable(39992) %0, i32 noundef %1, ptr noundef nonnull align 4 dereferenceable(1544) %2, ptr nocapture noundef nonnull readonly align 4 dereferenceable(16) %3, ptr nocapture noundef nonnull readonly align 4 dereferenceable(16) %4, ptr nocapture noundef readonly %5) local_unnamed_addr #4 align 2 {
  %7 = getelementptr inbounds nuw i8, ptr %0, i64 36
  %8 = sext i32 %1 to i64
  %9 = getelementptr inbounds [13 x %"struct.Moves::trackType"], ptr %7, i64 0, i64 %8
  %10 = getelementptr inbounds nuw i8, ptr %0, i64 2896
  store ptr %9, ptr %10, align 8
  %11 = load i32, ptr %9, align 4
  store i32 %11, ptr %0, align 8
  %12 = getelementptr inbounds nuw i8, ptr %0, i64 8
  store i32 %11, ptr %12, align 8
  %13 = getelementptr inbounds nuw i8, ptr %0, i64 16
  store i32 %1, ptr %13, align 8
  %14 = getelementptr inbounds nuw i8, ptr %0, i64 2904
  %15 = getelementptr inbounds [13 x [4 x %struct.movePlyType]], ptr %14, i64 0, i64 %8
  %16 = getelementptr inbounds nuw i8, ptr %0, i64 14968
  store ptr %15, ptr %16, align 8
  br label %17

17:                                               ; preds = %6, %17
  %indvars.iv = phi i64 [ 0, %6 ], [ %indvars.iv.next, %17 ]
  %18 = load ptr, ptr %10, align 8
  %19 = getelementptr inbounds nuw i8, ptr %18, i64 140
  %20 = getelementptr inbounds [4 x i32], ptr %19, i64 0, i64 %indvars.iv
  store i32 0, ptr %20, align 4
  %indvars.iv.next = add nuw nsw i64 %indvars.iv, 1
  %exitcond.not = icmp eq i64 %indvars.iv.next, 4
  br i1 %exitcond.not, label %21, label %17, !llvm.loop !61

21:                                               ; preds = %17
  %22 = getelementptr inbounds nuw i8, ptr %0, i64 28
  store i32 0, ptr %22, align 4
  %23 = getelementptr inbounds nuw i8, ptr %0, i64 20
  %24 = load i32, ptr %23, align 4
  %.not = icmp eq i32 %24, 4
  br i1 %.not, label %31, label %25

25:                                               ; preds = %21
  %26 = getelementptr inbounds nuw i8, ptr %2, i64 1480
  %27 = sext i32 %24 to i64
  %28 = getelementptr inbounds [4 x %struct.highCardType], ptr %26, i64 0, i64 %27
  %29 = load i32, ptr %28, align 4
  %30 = icmp ne i32 %29, 0
  br label %31

31:                                               ; preds = %25, %21
  %32 = phi i1 [ false, %21 ], [ %30, %25 ]
  %33 = getelementptr inbounds nuw i8, ptr %0, i64 24
  store i32 0, ptr %33, align 8
  %34 = getelementptr inbounds nuw i8, ptr %0, i64 32
  br label %35

35:                                               ; preds = %31, %92
  %storemerge56 = phi i32 [ 0, %31 ], [ %94, %92 ]
  %36 = load i32, ptr %0, align 8
  %37 = sext i32 %36 to i64
  %38 = sext i32 %storemerge56 to i64
  %39 = getelementptr inbounds [4 x [4 x i16]], ptr %2, i64 0, i64 %37, i64 %38
  %40 = load i16, ptr %39, align 2
  %41 = icmp eq i16 %40, 0
  br i1 %41, label %92, label %42

42:                                               ; preds = %35
  %43 = load i32, ptr %22, align 4
  store i32 %43, ptr %34, align 8
  %44 = zext i16 %40 to i64
  %45 = getelementptr inbounds [8192 x %struct.moveGroupType], ptr @groupData, i64 0, i64 %44
  %46 = load i32, ptr %45, align 4
  %47 = load ptr, ptr %10, align 8
  %48 = getelementptr inbounds nuw i8, ptr %47, i64 204
  %49 = getelementptr inbounds [4 x i32], ptr %48, i64 0, i64 %38
  %50 = load i32, ptr %49, align 4
  %51 = icmp sgt i32 %46, -1
  br i1 %51, label %.lr.ph55, label %._crit_edge

.lr.ph55:                                         ; preds = %42
  %52 = getelementptr inbounds nuw i8, ptr %45, i64 4
  %53 = getelementptr inbounds nuw i8, ptr %45, i64 32
  %54 = getelementptr inbounds nuw i8, ptr %45, i64 88
  %55 = getelementptr inbounds nuw i8, ptr %45, i64 60
  br label %56

56:                                               ; preds = %.lr.ph55, %.critedge
  %57 = phi i32 [ %43, %.lr.ph55 ], [ %87, %.critedge ]
  %.054 = phi i32 [ %46, %.lr.ph55 ], [ %88, %.critedge ]
  %58 = zext nneg i32 %.054 to i64
  %59 = getelementptr inbounds [7 x i32], ptr %52, i64 0, i64 %58
  %60 = load i32, ptr %59, align 4
  %61 = getelementptr inbounds [7 x i32], ptr %53, i64 0, i64 %58
  %62 = load i32, ptr %61, align 4
  %.not4547 = icmp eq i32 %.054, 0
  br i1 %.not4547, label %.critedge, label %.lr.ph

.lr.ph:                                           ; preds = %56, %68
  %.149 = phi i32 [ %69, %68 ], [ %.054, %56 ]
  %.04048 = phi i32 [ %73, %68 ], [ %62, %56 ]
  %63 = zext nneg i32 %.149 to i64
  %64 = getelementptr inbounds [7 x i32], ptr %54, i64 0, i64 %63
  %65 = load i32, ptr %64, align 4
  %66 = and i32 %65, %50
  %67 = icmp eq i32 %66, %65
  br i1 %67, label %68, label %.critedge

68:                                               ; preds = %.lr.ph
  %69 = add nsw i32 %.149, -1
  %70 = zext nneg i32 %69 to i64
  %71 = getelementptr inbounds [7 x i32], ptr %55, i64 0, i64 %70
  %72 = load i32, ptr %71, align 4
  %73 = or i32 %72, %.04048
  %.not45 = icmp eq i32 %69, 0
  br i1 %.not45, label %.critedge, label %.lr.ph, !llvm.loop !62

.critedge:                                        ; preds = %.lr.ph, %68, %56
  %.040.lcssa = phi i32 [ %62, %56 ], [ %73, %68 ], [ %.04048, %.lr.ph ]
  %.1.lcssa = phi i32 [ 0, %56 ], [ 0, %68 ], [ %.149, %.lr.ph ]
  %74 = load ptr, ptr %16, align 8
  %75 = sext i32 %57 to i64
  %76 = getelementptr inbounds %struct.moveType, ptr %74, i64 %75, i32 2
  store i32 %.040.lcssa, ptr %76, align 4
  %77 = load i32, ptr %33, align 8
  %78 = load ptr, ptr %16, align 8
  %79 = load i32, ptr %22, align 4
  %80 = sext i32 %79 to i64
  %81 = getelementptr inbounds %struct.moveType, ptr %78, i64 %80
  store i32 %77, ptr %81, align 4
  %82 = load ptr, ptr %16, align 8
  %83 = load i32, ptr %22, align 4
  %84 = sext i32 %83 to i64
  %85 = getelementptr inbounds %struct.moveType, ptr %82, i64 %84, i32 1
  store i32 %60, ptr %85, align 4
  %86 = load i32, ptr %22, align 4
  %87 = add nsw i32 %86, 1
  store i32 %87, ptr %22, align 4
  %88 = add nsw i32 %.1.lcssa, -1
  %89 = icmp sgt i32 %.1.lcssa, 0
  br i1 %89, label %56, label %._crit_edge, !llvm.loop !63

._crit_edge:                                      ; preds = %.critedge, %42
  br i1 %32, label %90, label %91

90:                                               ; preds = %._crit_edge
  tail call void @_ZN5Moves17WeightAllocTrump0ERK3posRK8moveTypeS5_PK12relRanksType(ptr noundef nonnull align 8 dereferenceable(39992) %0, ptr noundef nonnull align 4 dereferenceable(1544) %2, ptr noundef nonnull align 4 dereferenceable(16) %3, ptr noundef nonnull align 4 dereferenceable(16) %4, ptr noundef %5)
  br label %92

91:                                               ; preds = %._crit_edge
  tail call void @_ZN5Moves14WeightAllocNT0ERK3posRK8moveTypeS5_PK12relRanksType(ptr noundef nonnull align 8 dereferenceable(39992) %0, ptr noundef nonnull align 4 dereferenceable(1544) %2, ptr noundef nonnull align 4 dereferenceable(16) %3, ptr noundef nonnull align 4 dereferenceable(16) %4, ptr noundef %5)
  br label %92

92:                                               ; preds = %90, %91, %35
  %93 = load i32, ptr %33, align 8
  %94 = add nsw i32 %93, 1
  store i32 %94, ptr %33, align 8
  %95 = icmp slt i32 %93, 3
  br i1 %95, label %35, label %96, !llvm.loop !64

96:                                               ; preds = %92
  %97 = getelementptr inbounds nuw i8, ptr %15, i64 224
  store i32 0, ptr %97, align 8
  %98 = load i32, ptr %22, align 4
  %99 = add nsw i32 %98, -1
  %100 = getelementptr inbounds nuw i8, ptr %15, i64 228
  store i32 %99, ptr %100, align 4
  %.not44 = icmp eq i32 %98, 1
  br i1 %.not44, label %102, label %101

101:                                              ; preds = %96
  tail call void @_ZN5Moves9MergeSortEv(ptr noundef nonnull align 8 dereferenceable(39992) %0)
  %.pre = load i32, ptr %22, align 4
  br label %102

102:                                              ; preds = %101, %96
  %103 = phi i32 [ %.pre, %101 ], [ 1, %96 ]
  ret i32 %103
}